; ModuleID = '55/1135.c'
source_filename = "55/1135.c"
target datalayout = "e-m:e-p270:32:32-p271:32:32-p272:64:64-i64:64-f80:128-n8:16:32:64-S128"
target triple = "x86_64-pc-linux-gnu"

@.str = private unnamed_addr constant [3 x i8] c"%d\00", align 1
@.str.1 = private unnamed_addr constant [3 x i8] c"%s\00", align 1
@.str.2 = private unnamed_addr constant [2 x i8] c"0\00", align 1
@.str.3 = private unnamed_addr constant [3 x i8] c"%c\00", align 1

; Function Attrs: noinline nounwind uwtable
define dso_local i32 @main() #0 {
  %1 = alloca i32, align 4
  %2 = alloca i32, align 4
  %3 = alloca i32, align 4
  %4 = alloca i32, align 4
  %5 = alloca i32, align 4
  %6 = alloca i32, align 4
  %7 = alloca i64, align 8
  %8 = alloca i64, align 8
  %9 = alloca [100 x i8], align 16
  %10 = alloca [100 x i8], align 16
  store i32 0, i32* %1, align 4
  store i64 0, i64* %7, align 8
  store i64 1, i64* %8, align 8
  %11 = call i32 (i8*, ...) @__isoc99_scanf(i8* getelementptr inbounds ([3 x i8], [3 x i8]* @.str, i64 0, i64 0), i32* %2)
  %12 = getelementptr inbounds [100 x i8], [100 x i8]* %9, i64 0, i64 0
  %13 = call i32 (i8*, ...) @__isoc99_scanf(i8* getelementptr inbounds ([3 x i8], [3 x i8]* @.str.1, i64 0, i64 0), i8* %12)
  %14 = call i32 (i8*, ...) @__isoc99_scanf(i8* getelementptr inbounds ([3 x i8], [3 x i8]* @.str, i64 0, i64 0), i32* %3)
  %15 = getelementptr inbounds [100 x i8], [100 x i8]* %9, i64 0, i64 0
  %16 = call i64 @strlen(i8* %15) #3
  %17 = trunc i64 %16 to i32
  store i32 %17, i32* %4, align 4
  %18 = load i32, i32* %4, align 4
  %19 = sub nsw i32 %18, 1
  store i32 %19, i32* %5, align 4
  br label %20

20:                                               ; preds = %94, %0
  %21 = load i32, i32* %5, align 4
  %22 = icmp sge i32 %21, 0
  br i1 %22, label %23, label %97

23:                                               ; preds = %20
  %24 = load i32, i32* %5, align 4
  %25 = sext i32 %24 to i64
  %26 = getelementptr inbounds [100 x i8], [100 x i8]* %9, i64 0, i64 %25
  %27 = load i8, i8* %26, align 1
  %28 = sext i8 %27 to i32
  %29 = icmp sle i32 65, %28
  br i1 %29, label %30, label %50

30:                                               ; preds = %23
  %31 = load i32, i32* %5, align 4
  %32 = sext i32 %31 to i64
  %33 = getelementptr inbounds [100 x i8], [100 x i8]* %9, i64 0, i64 %32
  %34 = load i8, i8* %33, align 1
  %35 = sext i8 %34 to i32
  %36 = icmp sle i32 %35, 90
  br i1 %36, label %37, label %50

37:                                               ; preds = %30
  %38 = load i32, i32* %5, align 4
  %39 = sext i32 %38 to i64
  %40 = getelementptr inbounds [100 x i8], [100 x i8]* %9, i64 0, i64 %39
  %41 = load i8, i8* %40, align 1
  %42 = sext i8 %41 to i32
  %43 = sub nsw i32 %42, 65
  %44 = add nsw i32 %43, 48
  %45 = add nsw i32 %44, 10
  %46 = trunc i32 %45 to i8
  %47 = load i32, i32* %5, align 4
  %48 = sext i32 %47 to i64
  %49 = getelementptr inbounds [100 x i8], [100 x i8]* %9, i64 0, i64 %48
  store i8 %46, i8* %49, align 1
  br label %78

50:                                               ; preds = %30, %23
  %51 = load i32, i32* %5, align 4
  %52 = sext i32 %51 to i64
  %53 = getelementptr inbounds [100 x i8], [100 x i8]* %9, i64 0, i64 %52
  %54 = load i8, i8* %53, align 1
  %55 = sext i8 %54 to i32
  %56 = icmp sle i32 97, %55
  br i1 %56, label %57, label %77

57:                                               ; preds = %50
  %58 = load i32, i32* %5, align 4
  %59 = sext i32 %58 to i64
  %60 = getelementptr inbounds [100 x i8], [100 x i8]* %9, i64 0, i64 %59
  %61 = load i8, i8* %60, align 1
  %62 = sext i8 %61 to i32
  %63 = icmp sle i32 %62, 122
  br i1 %63, label %64, label %77

64:                                               ; preds = %57
  %65 = load i32, i32* %5, align 4
  %66 = sext i32 %65 to i64
  %67 = getelementptr inbounds [100 x i8], [100 x i8]* %9, i64 0, i64 %66
  %68 = load i8, i8* %67, align 1
  %69 = sext i8 %68 to i32
  %70 = sub nsw i32 %69, 97
  %71 = add nsw i32 %70, 48
  %72 = add nsw i32 %71, 10
  %73 = trunc i32 %72 to i8
  %74 = load i32, i32* %5, align 4
  %75 = sext i32 %74 to i64
  %76 = getelementptr inbounds [100 x i8], [100 x i8]* %9, i64 0, i64 %75
  store i8 %73, i8* %76, align 1
  br label %77

77:                                               ; preds = %64, %57, %50
  br label %78

78:                                               ; preds = %77, %37
  %79 = load i32, i32* %5, align 4
  %80 = sext i32 %79 to i64
  %81 = getelementptr inbounds [100 x i8], [100 x i8]* %9, i64 0, i64 %80
  %82 = load i8, i8* %81, align 1
  %83 = sext i8 %82 to i32
  %84 = sub nsw i32 %83, 48
  %85 = sext i32 %84 to i64
  %86 = load i64, i64* %8, align 8
  %87 = mul nsw i64 %85, %86
  %88 = load i64, i64* %7, align 8
  %89 = add nsw i64 %87, %88
  store i64 %89, i64* %7, align 8
  %90 = load i64, i64* %8, align 8
  %91 = load i32, i32* %2, align 4
  %92 = sext i32 %91 to i64
  %93 = mul nsw i64 %90, %92
  store i64 %93, i64* %8, align 8
  br label %94

94:                                               ; preds = %78
  %95 = load i32, i32* %5, align 4
  %96 = add nsw i32 %95, -1
  store i32 %96, i32* %5, align 4
  br label %20

97:                                               ; preds = %20
  store i32 0, i32* %6, align 4
  store i32 0, i32* %5, align 4
  br label %98

98:                                               ; preds = %137, %97
  %99 = load i64, i64* %7, align 8
  %100 = icmp sgt i64 %99, 0
  br i1 %100, label %101, label %140

101:                                              ; preds = %98
  %102 = load i64, i64* %7, align 8
  %103 = load i32, i32* %3, align 4
  %104 = sext i32 %103 to i64
  %105 = srem i64 %102, %104
  %106 = add nsw i64 %105, 48
  %107 = trunc i64 %106 to i8
  %108 = load i32, i32* %5, align 4
  %109 = sext i32 %108 to i64
  %110 = getelementptr inbounds [100 x i8], [100 x i8]* %10, i64 0, i64 %109
  store i8 %107, i8* %110, align 1
  %111 = load i32, i32* %5, align 4
  %112 = sext i32 %111 to i64
  %113 = getelementptr inbounds [100 x i8], [100 x i8]* %10, i64 0, i64 %112
  %114 = load i8, i8* %113, align 1
  %115 = sext i8 %114 to i32
  %116 = icmp slt i32 57, %115
  br i1 %116, label %117, label %130

117:                                              ; preds = %101
  %118 = load i32, i32* %5, align 4
  %119 = sext i32 %118 to i64
  %120 = getelementptr inbounds [100 x i8], [100 x i8]* %10, i64 0, i64 %119
  %121 = load i8, i8* %120, align 1
  %122 = sext i8 %121 to i32
  %123 = add nsw i32 %122, 65
  %124 = sub nsw i32 %123, 48
  %125 = sub nsw i32 %124, 10
  %126 = trunc i32 %125 to i8
  %127 = load i32, i32* %5, align 4
  %128 = sext i32 %127 to i64
  %129 = getelementptr inbounds [100 x i8], [100 x i8]* %10, i64 0, i64 %128
  store i8 %126, i8* %129, align 1
  br label %130

130:                                              ; preds = %117, %101
  %131 = load i64, i64* %7, align 8
  %132 = load i32, i32* %3, align 4
  %133 = sext i32 %132 to i64
  %134 = sdiv i64 %131, %133
  store i64 %134, i64* %7, align 8
  %135 = load i32, i32* %6, align 4
  %136 = add nsw i32 %135, 1
  store i32 %136, i32* %6, align 4
  br label %137

137:                                              ; preds = %130
  %138 = load i32, i32* %5, align 4
  %139 = add nsw i32 %138, 1
  store i32 %139, i32* %5, align 4
  br label %98

140:                                              ; preds = %98
  %141 = load i32, i32* %5, align 4
  %142 = icmp eq i32 %141, 0
  br i1 %142, label %143, label %145

143:                                              ; preds = %140
  %144 = call i32 (i8*, ...) @printf(i8* getelementptr inbounds ([2 x i8], [2 x i8]* @.str.2, i64 0, i64 0))
  br label %162

145:                                              ; preds = %140
  %146 = load i32, i32* %6, align 4
  %147 = sub nsw i32 %146, 1
  store i32 %147, i32* %5, align 4
  br label %148

148:                                              ; preds = %158, %145
  %149 = load i32, i32* %5, align 4
  %150 = icmp sge i32 %149, 0
  br i1 %150, label %151, label %161

151:                                              ; preds = %148
  %152 = load i32, i32* %5, align 4
  %153 = sext i32 %152 to i64
  %154 = getelementptr inbounds [100 x i8], [100 x i8]* %10, i64 0, i64 %153
  %155 = load i8, i8* %154, align 1
  %156 = sext i8 %155 to i32
  %157 = call i32 (i8*, ...) @printf(i8* getelementptr inbounds ([3 x i8], [3 x i8]* @.str.3, i64 0, i64 0), i32 %156)
  br label %158

158:                                              ; preds = %151
  %159 = load i32, i32* %5, align 4
  %160 = add nsw i32 %159, -1
  store i32 %160, i32* %5, align 4
  br label %148

161:                                              ; preds = %148
  br label %162

162:                                              ; preds = %161, %143
  ret i32 0
}

declare dso_local i32 @__isoc99_scanf(i8*, ...) #1

; Function Attrs: nounwind readonly
declare dso_local i64 @strlen(i8*) #2

declare dso_local i32 @printf(i8*, ...) #1


!llvm.module.flags = !{!0}
!llvm.ident = !{!1}

!0 = !{i32 1, !"wchar_size", i32 4}
!1 = !{!"clang version 10.0.0-4ubuntu1 "}
